; Function Attrs: mustprogress nofree norecurse nosync nounwind willreturn memory(argmem: read) uwtable
define hidden i32 @_Z3lcmRK9s_integerS1_(ptr noundef nonnull readonly align 4 captures(none) dereferenceable(4) %0, ptr noundef nonnull readonly align 4 captures(none) dereferenceable(4) %1) local_unnamed_addr #5 {
  %3 = load i32, ptr %0, align 4, !tbaa !8
  %4 = load i32, ptr %1, align 4, !tbaa !8
  %spec.select.i = tail call i32 @llvm.abs.i32(i32 %3, i1 true)
  %.sroa.08.0.i = tail call i32 @llvm.abs.i32(i32 %4, i1 true)
  %.sroa.03.1.i = tail call i32 @llvm.umax.i32(i32 %spec.select.i, i32 %.sroa.08.0.i)
  %.sroa.08.1.i = tail call i32 @llvm.umin.i32(i32 %spec.select.i, i32 %.sroa.08.0.i)
  br label %5

5:                                                ; preds = %5, %2
  %.sroa.03.2.i = phi i32 [ %.sroa.03.1.i, %2 ], [ %.sroa.08.2.i, %5 ]
  %.sroa.08.2.i = phi i32 [ %.sroa.08.1.i, %2 ], [ %6, %5 ]
  %6 = urem i32 %.sroa.03.2.i, %.sroa.08.2.i
  %7 = icmp eq i32 %6, 0
  br i1 %7, label %_Z3gcdRK9s_integerS1_.exit, label %5, !llvm.loop !11

_Z3gcdRK9s_integerS1_.exit:                       ; preds = %5
  %8 = sdiv i32 %3, %.sroa.08.2.i
  %9 = mul nsw i32 %8, %4
  ret i32 %9
}